target datalayout = "e-m:e-p270:32:32-p271:32:32-p272:64:64-i64:64-i128:128-f80:128-n8:16:32:64-S128"
target triple = "x86_64-pc-linux-gnu"

%struct.grpc_slice = type { ptr, %"union.grpc_slice::grpc_slice_data" }
%"union.grpc_slice::grpc_slice_data" = type { %"struct.grpc_slice::grpc_slice_data::grpc_slice_refcounted", [8 x i8] }
%"struct.grpc_slice::grpc_slice_data::grpc_slice_refcounted" = type { i64, ptr }
%struct.alts_tsi_handshaker_result = type { %struct.tsi_handshaker_result, ptr, ptr, ptr, i64, %struct.grpc_slice, i8, %struct.grpc_slice, i64 }
%struct.tsi_handshaker_result = type { ptr }
%"class.grpc_core::DebugLocation" = type { i8 }
%struct.grpc_slice_refcount = type { %"struct.std::atomic.18", ptr }
%"struct.std::atomic.18" = type { %"struct.std::__atomic_base.19" }
%"struct.std::__atomic_base.19" = type { i64 }

; Function Attrs: alwaysinline mustprogress nounwind uwtable
define linkonce_odr noundef i64 @_ZNSt13__atomic_baseImE9fetch_subEmSt12memory_order(ptr noundef nonnull align 8 dereferenceable(8) %0, i64 noundef %1, i32 noundef %2) #21 comdat align 2 {
  %4 = alloca ptr, align 8
  %5 = alloca i64, align 8
  %6 = alloca i32, align 4
  %7 = alloca i64, align 8
  %8 = alloca i64, align 8
  store ptr %0, ptr %4, align 8, !tbaa !264
  store i64 %1, ptr %5, align 8, !tbaa !40
  store i32 %2, ptr %6, align 4, !tbaa !240
  %9 = load ptr, ptr %4, align 8
  %10 = getelementptr inbounds nuw %"struct.std::__atomic_base.19", ptr %9, i32 0, i32 0
  %11 = load i32, ptr %6, align 4, !tbaa !240
  %12 = load i64, ptr %5, align 8, !tbaa !40
  store i64 %12, ptr %7, align 8, !tbaa !40
  switch i32 %11, label %13 [
    i32 1, label %16
    i32 2, label %16
    i32 3, label %19
    i32 4, label %22
    i32 5, label %25
  ]

13:                                               ; preds = %3
  %14 = load i64, ptr %7, align 8
  %15 = atomicrmw sub ptr %10, i64 %14 monotonic, align 8
  store i64 %15, ptr %8, align 8
  br label %28

16:                                               ; preds = %3, %3
  %17 = load i64, ptr %7, align 8
  %18 = atomicrmw sub ptr %10, i64 %17 acquire, align 8
  store i64 %18, ptr %8, align 8
  br label %28

19:                                               ; preds = %3
  %20 = load i64, ptr %7, align 8
  %21 = atomicrmw sub ptr %10, i64 %20 release, align 8
  store i64 %21, ptr %8, align 8
  br label %28

22:                                               ; preds = %3
  %23 = load i64, ptr %7, align 8
  %24 = atomicrmw sub ptr %10, i64 %23 acq_rel, align 8
  store i64 %24, ptr %8, align 8
  br label %28

25:                                               ; preds = %3
  %26 = load i64, ptr %7, align 8
  %27 = atomicrmw sub ptr %10, i64 %26 seq_cst, align 8
  store i64 %27, ptr %8, align 8
  br label %28

28:                                               ; preds = %25, %22, %19, %16, %13
  %29 = load i64, ptr %8, align 8, !tbaa !40
  ret i64 %29
}

; Function Attrs: mustprogress uwtable
define linkonce_odr void @_ZN19grpc_slice_refcount5UnrefEN9grpc_core13DebugLocationE(ptr noundef nonnull align 8 dereferenceable(16) %0) #4 comdat align 2 {
  %2 = alloca ptr, align 8
  %3 = alloca i64, align 8
  store ptr %0, ptr %2, align 8, !tbaa !46
  %4 = load ptr, ptr %2, align 8
  call void @llvm.lifetime.start.p0(i64 8, ptr %3) #3
  %5 = getelementptr inbounds nuw %struct.grpc_slice_refcount, ptr %4, i32 0, i32 0
  %6 = call noundef i64 @_ZNSt13__atomic_baseImE9fetch_subEmSt12memory_order(ptr noundef nonnull align 8 dereferenceable(8) %5, i64 noundef 1, i32 noundef 4) #3
  store i64 %6, ptr %3, align 8, !tbaa !40
  %7 = load i64, ptr %3, align 8, !tbaa !40
  %8 = icmp eq i64 %7, 1
  br i1 %8, label %9, label %12

9:                                                ; preds = %1
  %10 = getelementptr inbounds nuw %struct.grpc_slice_refcount, ptr %4, i32 0, i32 1
  %11 = load ptr, ptr %10, align 8, !tbaa !260
  call void %11(ptr noundef %4)
  br label %12

12:                                               ; preds = %9, %1
  call void @llvm.lifetime.end.p0(i64 8, ptr %3) #3
  ret void
}

; Function Attrs: inlinehint mustprogress uwtable
define linkonce_odr void @_ZN9grpc_core11CSliceUnrefERK10grpc_sliceNS_13DebugLocationE(ptr noundef nonnull align 8 dereferenceable(32) %0) #9 comdat {
  %2 = alloca ptr, align 8
  store ptr %0, ptr %2, align 8, !tbaa !113
  %3 = load ptr, ptr %2, align 8, !tbaa !113
  %4 = getelementptr inbounds nuw %struct.grpc_slice, ptr %3, i32 0, i32 0
  %5 = load ptr, ptr %4, align 8, !tbaa !115
  %6 = ptrtoint ptr %5 to i64
  %7 = icmp ugt i64 %6, 1
  br i1 %7, label %8, label %12

8:                                                ; preds = %1
  %9 = load ptr, ptr %2, align 8, !tbaa !113
  %10 = getelementptr inbounds nuw %struct.grpc_slice, ptr %9, i32 0, i32 0
  %11 = load ptr, ptr %10, align 8, !tbaa !115
  call void @_ZN19grpc_slice_refcount5UnrefEN9grpc_core13DebugLocationE(ptr noundef nonnull align 8 dereferenceable(16) %11)
  br label %12

12:                                               ; preds = %8, %1
  ret void
}

; Function Attrs: mustprogress nounwind uwtable
define linkonce_odr void @_ZN9grpc_core13DebugLocationC2Ev(ptr noundef nonnull align 1 dereferenceable(1) %0) unnamed_addr #6 comdat align 2 {
  %2 = alloca ptr, align 8
  store ptr %0, ptr %2, align 8, !tbaa !258
  ret void
}

; Function Attrs: mustprogress uwtable
define internal void @_ZL25handshaker_result_destroyP21tsi_handshaker_result(ptr noundef %0) #4 {
  %2 = alloca ptr, align 8
  %3 = alloca ptr, align 8
  %4 = alloca %"class.grpc_core::DebugLocation", align 1
  %5 = alloca %"class.grpc_core::DebugLocation", align 1
  store ptr %0, ptr %2, align 8, !tbaa !50
  %6 = load ptr, ptr %2, align 8, !tbaa !50
  %7 = icmp eq ptr %6, null
  br i1 %7, label %8, label %9

8:                                                ; preds = %1
  br label %25

9:                                                ; preds = %1
  call void @llvm.lifetime.start.p0(i64 8, ptr %3) #3
  %10 = load ptr, ptr %2, align 8, !tbaa !50
  store ptr %10, ptr %3, align 8, !tbaa !23
  %11 = load ptr, ptr %3, align 8, !tbaa !23
  %12 = getelementptr inbounds nuw %struct.alts_tsi_handshaker_result, ptr %11, i32 0, i32 1
  %13 = load ptr, ptr %12, align 8, !tbaa !32
  call void @gpr_free(ptr noundef %13)
  %14 = load ptr, ptr %3, align 8, !tbaa !23
  %15 = getelementptr inbounds nuw %struct.alts_tsi_handshaker_result, ptr %14, i32 0, i32 2
  %16 = load ptr, ptr %15, align 8, !tbaa !25
  call void @gpr_free(ptr noundef %16)
  %17 = load ptr, ptr %3, align 8, !tbaa !23
  %18 = getelementptr inbounds nuw %struct.alts_tsi_handshaker_result, ptr %17, i32 0, i32 3
  %19 = load ptr, ptr %18, align 8, !tbaa !117
  call void @gpr_free(ptr noundef %19)
  %20 = load ptr, ptr %3, align 8, !tbaa !23
  %21 = getelementptr inbounds nuw %struct.alts_tsi_handshaker_result, ptr %20, i32 0, i32 5
  call void @_ZN9grpc_core13DebugLocationC2Ev(ptr noundef nonnull align 1 dereferenceable(1) %4)
  call void @_ZN9grpc_core11CSliceUnrefERK10grpc_sliceNS_13DebugLocationE(ptr noundef nonnull align 8 dereferenceable(32) %21)
  %22 = load ptr, ptr %3, align 8, !tbaa !23
  %23 = getelementptr inbounds nuw %struct.alts_tsi_handshaker_result, ptr %22, i32 0, i32 7
  call void @_ZN9grpc_core13DebugLocationC2Ev(ptr noundef nonnull align 1 dereferenceable(1) %5)
  call void @_ZN9grpc_core11CSliceUnrefERK10grpc_sliceNS_13DebugLocationE(ptr noundef nonnull align 8 dereferenceable(32) %23)
  %24 = load ptr, ptr %3, align 8, !tbaa !23
  call void @gpr_free(ptr noundef %24)
  call void @llvm.lifetime.end.p0(i64 8, ptr %3) #3
  br label %25

25:                                               ; preds = %9, %8
  ret void
}