; Function Attrs: mustprogress uwtable
define internal void @_ZL25handshaker_result_destroyP21tsi_handshaker_result(ptr noundef %0) #3 {
  %2 = icmp eq ptr %0, null
  br i1 %2, label %28, label %3

3:                                                ; preds = %1
  %4 = getelementptr inbounds nuw i8, ptr %0, i64 8
  %5 = load ptr, ptr %4, align 8, !tbaa !18
  tail call void @gpr_free(ptr noundef %5)
  %6 = getelementptr inbounds nuw i8, ptr %0, i64 16
  %7 = load ptr, ptr %6, align 8, !tbaa !8
  tail call void @gpr_free(ptr noundef %7)
  %8 = getelementptr inbounds nuw i8, ptr %0, i64 24
  %9 = load ptr, ptr %8, align 8, !tbaa !79
  tail call void @gpr_free(ptr noundef %9)
  %10 = getelementptr inbounds nuw i8, ptr %0, i64 40
  %11 = load ptr, ptr %10, align 8, !tbaa !77
  %12 = icmp ugt ptr %11, inttoptr (i64 1 to ptr)
  br i1 %12, label %13, label %_ZN9grpc_core11CSliceUnrefERK10grpc_sliceNS_13DebugLocationE.exit

13:                                               ; preds = %3
  %14 = atomicrmw sub ptr %11, i64 1 acq_rel, align 8
  %15 = icmp eq i64 %14, 1
  br i1 %15, label %16, label %_ZN9grpc_core11CSliceUnrefERK10grpc_sliceNS_13DebugLocationE.exit

16:                                               ; preds = %13
  %17 = getelementptr inbounds nuw i8, ptr %11, i64 8
  %18 = load ptr, ptr %17, align 8, !tbaa !104
  tail call void %18(ptr noundef nonnull align 8 dereferenceable(16) %11)
  br label %_ZN9grpc_core11CSliceUnrefERK10grpc_sliceNS_13DebugLocationE.exit

_ZN9grpc_core11CSliceUnrefERK10grpc_sliceNS_13DebugLocationE.exit: ; preds = %3, %13, %16
  %19 = getelementptr inbounds nuw i8, ptr %0, i64 80
  %20 = load ptr, ptr %19, align 8, !tbaa !77
  %21 = icmp ugt ptr %20, inttoptr (i64 1 to ptr)
  br i1 %21, label %22, label %_ZN9grpc_core11CSliceUnrefERK10grpc_sliceNS_13DebugLocationE.exit8

22:                                               ; preds = %_ZN9grpc_core11CSliceUnrefERK10grpc_sliceNS_13DebugLocationE.exit
  %23 = atomicrmw sub ptr %20, i64 1 acq_rel, align 8
  %24 = icmp eq i64 %23, 1
  br i1 %24, label %25, label %_ZN9grpc_core11CSliceUnrefERK10grpc_sliceNS_13DebugLocationE.exit8

25:                                               ; preds = %22
  %26 = getelementptr inbounds nuw i8, ptr %20, i64 8
  %27 = load ptr, ptr %26, align 8, !tbaa !104
  tail call void %27(ptr noundef nonnull align 8 dereferenceable(16) %20)
  br label %_ZN9grpc_core11CSliceUnrefERK10grpc_sliceNS_13DebugLocationE.exit8

_ZN9grpc_core11CSliceUnrefERK10grpc_sliceNS_13DebugLocationE.exit8: ; preds = %_ZN9grpc_core11CSliceUnrefERK10grpc_sliceNS_13DebugLocationE.exit, %22, %25
  tail call void @gpr_free(ptr noundef nonnull %0)
  br label %28

28:                                               ; preds = %1, %_ZN9grpc_core11CSliceUnrefERK10grpc_sliceNS_13DebugLocationE.exit8
  ret void
}